target datalayout = "e-m:e-p270:32:32-p271:32:32-p272:64:64-i64:64-i128:128-f80:128-n8:16:32:64-S128"
target triple = "x86_64-pc-linux-gnu"

%"struct.Luau::FValue.87" = type { i8, i8, ptr, ptr }
%"class.std::optional.79" = type { %"struct.std::_Optional_base.80" }
%"struct.std::_Optional_base.80" = type { %"struct.std::_Optional_payload.82" }
%"struct.std::_Optional_payload.82" = type { %"struct.std::_Optional_payload_base.base.84", [7 x i8] }
%"struct.std::_Optional_payload_base.base.84" = type <{ %"union.std::_Optional_payload_base<const Luau::Type *>::_Storage", i8 }>
%"union.std::_Optional_payload_base<const Luau::Type *>::_Storage" = type { ptr }
%"struct.Luau::Type" = type { %"class.Luau::Variant", i8, [7 x i8], %"class.std::optional", ptr }
%"class.Luau::Variant" = type { i32, [4 x i8], [336 x i8] }
%"class.std::optional" = type { %"struct.std::_Optional_base" }
%"struct.std::_Optional_base" = type { %"struct.std::_Optional_payload" }
%"struct.std::_Optional_payload" = type { %"struct.std::_Optional_payload.base", [7 x i8] }
%"struct.std::_Optional_payload.base" = type { %"struct.std::_Optional_payload_base.base" }
%"struct.std::_Optional_payload_base.base" = type <{ %"union.std::_Optional_payload_base<std::__cxx11::basic_string<char>>::_Storage", i8 }>
%"union.std::_Optional_payload_base<std::__cxx11::basic_string<char>>::_Storage" = type { %"class.std::__cxx11::basic_string" }
%"class.std::__cxx11::basic_string" = type { %"struct.std::__cxx11::basic_string<char>::_Alloc_hider", i64, %union.anon }
%"struct.std::__cxx11::basic_string<char>::_Alloc_hider" = type { ptr }
%union.anon = type { i64, [8 x i8] }
%class.anon = type <{ ptr, ptr, i8, [7 x i8] }>
%"struct.Luau::Unifiable::Error" = type { i32, [4 x i8], %"class.std::optional.79" }

@_ZN5FFlag19LuauSyntheticErrorsE = external global %"struct.Luau::FValue.87", align 8

; Function Attrs: alwaysinline mustprogress nounwind uwtable
define linkonce_odr dso_local noundef zeroext i1 @_ZNK4Luau6FValueIbEcvbEv(ptr noundef nonnull align 8 dereferenceable(24) %0) #4 comdat align 2 {
  %2 = alloca ptr, align 8
  store ptr %0, ptr %2, align 8, !tbaa !184
  %3 = load ptr, ptr %2, align 8
  %4 = getelementptr inbounds nuw %"struct.Luau::FValue.87", ptr %3, i32 0, i32 0
  %5 = load i8, ptr %4, align 8, !tbaa !186, !range !17, !noundef !18
  %6 = trunc i8 %5 to i1
  ret i1 %6
}

; Function Attrs: inlinehint mustprogress uwtable
define internal noundef ptr @"_ZZN4LuauL12shallowCloneEPKNS_4TypeERNS_9TypeArenaEPKNS_6TxnLogEbENK3$_0clIRKNS_9Unifiable5ErrorIS2_EEEEDaOT_"(ptr noundef nonnull align 8 dereferenceable(17) %0, ptr noundef nonnull align 8 dereferenceable(24) %1) #8 align 2 {
  %3 = alloca ptr, align 8
  %4 = alloca ptr, align 8
  %5 = alloca ptr, align 8
  %6 = alloca %"struct.Luau::Unifiable::Error", align 8
  %7 = alloca %"struct.Luau::Unifiable::Error", align 8
  store ptr %0, ptr %4, align 8, !tbaa !438
  store ptr %1, ptr %5, align 8, !tbaa !683
  %8 = load ptr, ptr %4, align 8
  %9 = call noundef zeroext i1 @_ZNK4Luau6FValueIbEcvbEv(ptr noundef nonnull align 8 dereferenceable(24) @_ZN5FFlag19LuauSyntheticErrorsE)
  br i1 %9, label %10, label %26

10:                                               ; preds = %2
  %11 = getelementptr inbounds nuw %class.anon, ptr %8, i32 0, i32 0
  %12 = load ptr, ptr %11, align 8, !tbaa !296
  %13 = getelementptr inbounds nuw %"struct.Luau::Type", ptr %12, i32 0, i32 1
  %14 = load i8, ptr %13, align 8, !tbaa !450, !range !17, !noundef !18
  %15 = trunc i8 %14 to i1
  br i1 %15, label %16, label %19

16:                                               ; preds = %10
  %17 = getelementptr inbounds nuw %class.anon, ptr %8, i32 0, i32 0
  %18 = load ptr, ptr %17, align 8, !tbaa !296
  store ptr %18, ptr %3, align 8
  br label %29

19:                                               ; preds = %10
  call void @llvm.lifetime.start.p0(i64 24, ptr %6) #19
  call void @_ZN4Luau9Unifiable5ErrorIPKNS_4TypeEEC1Ev(ptr noundef nonnull align 8 dereferenceable(24) %6)
  %20 = load ptr, ptr %5, align 8, !tbaa !683
  %21 = getelementptr inbounds nuw %"struct.Luau::Unifiable::Error", ptr %20, i32 0, i32 2
  %22 = getelementptr inbounds nuw %"struct.Luau::Unifiable::Error", ptr %6, i32 0, i32 2
  call void @llvm.memcpy.p0.p0.i64(ptr align 8 %22, ptr align 8 %21, i64 16, i1 false)
  %23 = getelementptr inbounds nuw %class.anon, ptr %8, i32 0, i32 1
  %24 = load ptr, ptr %23, align 8, !tbaa !446
  call void @llvm.memcpy.p0.p0.i64(ptr align 8 %7, ptr align 8 %6, i64 24, i1 false)
  %25 = call noundef ptr @_ZN4Luau9TypeArena7addTypeINS_9Unifiable5ErrorIPKNS_4TypeEEEEES6_T_(ptr noundef nonnull align 8 dereferenceable(88) %24, ptr noundef byval(%"struct.Luau::Unifiable::Error") align 8 %7)
  store ptr %25, ptr %3, align 8
  call void @llvm.lifetime.end.p0(i64 24, ptr %6) #19
  br label %29

26:                                               ; preds = %2
  %27 = getelementptr inbounds nuw %class.anon, ptr %8, i32 0, i32 0
  %28 = load ptr, ptr %27, align 8, !tbaa !296
  store ptr %28, ptr %3, align 8
  br label %29

29:                                               ; preds = %26, %19, %16
  %30 = load ptr, ptr %3, align 8
  ret ptr %30
}

; Function Attrs: mustprogress uwtable
define internal void @"_ZN4LuauL8fnVisitRIRZNS_L12shallowCloneEPKNS_4TypeERNS_9TypeArenaEPKNS_6TxnLogEbE3$_0S3_KNS_9Unifiable5ErrorIS3_EEEEvRT_RT0_PNSt11conditionalIXsr3stdE10is_const_vIT1_EEKvvE4typeE"(ptr noundef nonnull align 8 dereferenceable(17) %0, ptr noundef nonnull align 8 dereferenceable(8) %1, ptr noundef %2) #3 {
  %4 = alloca ptr, align 8
  %5 = alloca ptr, align 8
  %6 = alloca ptr, align 8
  store ptr %0, ptr %4, align 8, !tbaa !438
  store ptr %1, ptr %5, align 8, !tbaa !73
  store ptr %2, ptr %6, align 8, !tbaa !438
  %7 = load ptr, ptr %4, align 8, !tbaa !438
  %8 = load ptr, ptr %6, align 8, !tbaa !438
  %9 = call noundef ptr @"_ZZN4LuauL12shallowCloneEPKNS_4TypeERNS_9TypeArenaEPKNS_6TxnLogEbENK3$_0clIRKNS_9Unifiable5ErrorIS2_EEEEDaOT_"(ptr noundef nonnull align 8 dereferenceable(17) %7, ptr noundef nonnull align 8 dereferenceable(24) %8)
  %10 = load ptr, ptr %5, align 8, !tbaa !73
  store ptr %9, ptr %10, align 8, !tbaa !26
  ret void
}