; Function Attrs: mustprogress uwtable
define internal void @"_ZN4LuauL8fnVisitRIRZNS_L12shallowCloneEPKNS_4TypeERNS_9TypeArenaEPKNS_6TxnLogEbE3$_0S3_KNS_9Unifiable5ErrorIS3_EEEEvRT_RT0_PNSt11conditionalIXsr3stdE10is_const_vIT1_EEKvvE4typeE"(ptr noundef nonnull readonly align 8 captures(none) dereferenceable(17) %0, ptr noundef nonnull writeonly align 8 captures(none) dereferenceable(8) initializes((0, 8)) %1, ptr noundef readonly captures(none) %2) #2 {
  %4 = alloca %"struct.Luau::Unifiable::Error", align 8
  %5 = load i8, ptr @_ZN5FFlag19LuauSyntheticErrorsE, align 8, !tbaa !119, !range !117, !noundef !118
  %6 = trunc nuw i8 %5 to i1
  %7 = load ptr, ptr %0, align 8, !tbaa !234
  br i1 %6, label %8, label %"_ZZN4LuauL12shallowCloneEPKNS_4TypeERNS_9TypeArenaEPKNS_6TxnLogEbENK3$_0clIRKNS_9Unifiable5ErrorIS2_EEEEDaOT_.exit"

8:                                                ; preds = %3
  %9 = getelementptr inbounds nuw i8, ptr %7, i64 344
  %10 = load i8, ptr %9, align 8, !tbaa !251, !range !117, !noundef !118
  %11 = trunc nuw i8 %10 to i1
  br i1 %11, label %"_ZZN4LuauL12shallowCloneEPKNS_4TypeERNS_9TypeArenaEPKNS_6TxnLogEbENK3$_0clIRKNS_9Unifiable5ErrorIS2_EEEEDaOT_.exit", label %12

12:                                               ; preds = %8
  call void @llvm.lifetime.start.p0(i64 24, ptr nonnull %4) #26
  call void @_ZN4Luau9Unifiable5ErrorIPKNS_4TypeEEC1Ev(ptr noundef nonnull align 8 dereferenceable(24) %4)
  %13 = getelementptr inbounds nuw i8, ptr %2, i64 8
  %14 = getelementptr inbounds nuw i8, ptr %4, i64 8
  call void @llvm.memcpy.p0.p0.i64(ptr noundef nonnull align 8 dereferenceable(16) %14, ptr noundef nonnull readonly align 8 dereferenceable(16) %13, i64 16, i1 false)
  %15 = getelementptr inbounds nuw i8, ptr %0, i64 8
  %16 = load ptr, ptr %15, align 8, !tbaa !248
  %17 = call noundef ptr @_ZN4Luau9TypeArena7addTypeINS_9Unifiable5ErrorIPKNS_4TypeEEEEES6_T_(ptr noundef nonnull align 8 dereferenceable(88) %16, ptr noundef nonnull byval(%"struct.Luau::Unifiable::Error") align 8 %4)
  call void @llvm.lifetime.end.p0(i64 24, ptr nonnull %4) #26
  br label %"_ZZN4LuauL12shallowCloneEPKNS_4TypeERNS_9TypeArenaEPKNS_6TxnLogEbENK3$_0clIRKNS_9Unifiable5ErrorIS2_EEEEDaOT_.exit"

"_ZZN4LuauL12shallowCloneEPKNS_4TypeERNS_9TypeArenaEPKNS_6TxnLogEbENK3$_0clIRKNS_9Unifiable5ErrorIS2_EEEEDaOT_.exit": ; preds = %3, %8, %12
  %.0.i = phi ptr [ %17, %12 ], [ %7, %8 ], [ %7, %3 ]
  store ptr %.0.i, ptr %1, align 8, !tbaa !24
  ret void
}